; Function Attrs: mustprogress uwtable
define hidden void @_ZN14duckdb_mbedtls14MbedTlsWrapper18AESGCMStateMBEDTLS20InitializeEncryptionEPKhmPKNSt7__cxx1112basic_stringIcSt11char_traitsIcESaIcEEE(ptr noundef nonnull readonly align 8 captures(none) dereferenceable(24) %0, ptr noundef %1, i64 noundef %2, ptr noundef readonly captures(none) %3) unnamed_addr #0 align 2 personality ptr @__gxx_personality_v0 {
  %5 = getelementptr inbounds nuw i8, ptr %0, i64 16
  %6 = load ptr, ptr %5, align 8, !tbaa !28
  %7 = load ptr, ptr %3, align 8, !tbaa !13
  %8 = getelementptr inbounds nuw i8, ptr %3, i64 8
  %9 = load i64, ptr %8, align 8, !tbaa !9
  %.tr = trunc i64 %9 to i32
  %10 = shl i32 %.tr, 3
  %11 = tail call i32 @mbedtls_gcm_setkey(ptr noundef %6, i32 noundef 2, ptr noundef %7, i32 noundef %10)
  %.not = icmp eq i32 %11, 0
  br i1 %.not, label %17, label %12

12:                                               ; preds = %4
  %13 = tail call ptr @__cxa_allocate_exception(i64 16) #19
  invoke void @_ZNSt13runtime_errorC1EPKc(ptr noundef nonnull align 8 dereferenceable(16) %13, ptr noundef nonnull @.str.8)
          to label %14 unwind label %15

14:                                               ; preds = %12
  tail call void @__cxa_throw(ptr nonnull %13, ptr nonnull @_ZTISt13runtime_error, ptr nonnull @_ZNSt13runtime_errorD1Ev) #20
  unreachable

15:                                               ; preds = %12
  %16 = landingpad { ptr, i32 }
          cleanup
  br label %25

17:                                               ; preds = %4
  %18 = tail call i32 @mbedtls_gcm_starts(ptr noundef %6, i32 noundef 1, ptr noundef %1, i64 noundef %2)
  %.not9 = icmp eq i32 %18, 0
  br i1 %.not9, label %24, label %19

19:                                               ; preds = %17
  %20 = tail call ptr @__cxa_allocate_exception(i64 16) #19
  invoke void @_ZNSt13runtime_errorC1EPKc(ptr noundef nonnull align 8 dereferenceable(16) %20, ptr noundef nonnull @.str.9)
          to label %21 unwind label %22

21:                                               ; preds = %19
  tail call void @__cxa_throw(ptr nonnull %20, ptr nonnull @_ZTISt13runtime_error, ptr nonnull @_ZNSt13runtime_errorD1Ev) #20
  unreachable

22:                                               ; preds = %19
  %23 = landingpad { ptr, i32 }
          cleanup
  br label %25

24:                                               ; preds = %17
  ret void

25:                                               ; preds = %22, %15
  %.sink = phi ptr [ %20, %22 ], [ %13, %15 ]
  %.pn = phi { ptr, i32 } [ %23, %22 ], [ %16, %15 ]
  tail call void @__cxa_free_exception(ptr nonnull %.sink) #19
  resume { ptr, i32 } %.pn
}